target datalayout = "e-m:e-p270:32:32-p271:32:32-p272:64:64-i64:64-i128:128-f80:128-n8:16:32:64-S128"
target triple = "x86_64-pc-linux-gnu"

%struct.Gia_Man_t_ = type { ptr, ptr, i32, i32, i32, i32, ptr, ptr, i32, i32, i32, ptr, ptr, %struct.Vec_Int_t_, %struct.Vec_Int_t_, i32, i32, i32, %struct.Vec_Int_t_, ptr, ptr, ptr, i32, i32, i32, i32, ptr, ptr, ptr, ptr, ptr, i32, i32, ptr, i32, ptr, ptr, ptr, ptr, ptr, ptr, ptr, ptr, ptr, ptr, ptr, ptr, ptr, ptr, ptr, ptr, ptr, ptr, %struct.Vec_Int_t_, %struct.Vec_Int_t_, ptr, ptr, ptr, ptr, ptr, ptr, ptr, ptr, ptr, ptr, ptr, ptr, ptr, ptr, ptr, ptr, ptr, ptr, ptr, ptr, ptr, i32, float, float, ptr, ptr, i32, ptr, ptr, ptr, ptr, ptr, ptr, ptr, ptr, ptr, ptr, ptr, ptr, ptr, ptr, ptr, i64, i64, ptr, ptr, i32, i32, i32, i32, i32, i32, i32, i32, i32, i32, i32, i32, ptr, ptr, ptr, ptr, ptr, ptr, ptr, ptr, i32, i32, i32, ptr, i32, i32, ptr, ptr, ptr, ptr, ptr, ptr, i32, i32, ptr, %struct.Vec_Int_t_, %struct.Vec_Int_t_, %struct.Vec_Int_t_, ptr, ptr, ptr, i32, i32, i32, i32, ptr, ptr, ptr, ptr, ptr }
%struct.Vec_Int_t_ = type { i32, i32, ptr }
%struct.Gia_Obj_t_ = type <{ i64, i32 }>

; Function Attrs: inlinehint nounwind uwtable
define internal ptr @Gia_Regular(ptr noundef %0) #3 {
  %2 = alloca ptr, align 8
  store ptr %0, ptr %2, align 8, !tbaa !47
  %3 = load ptr, ptr %2, align 8, !tbaa !47
  %4 = ptrtoint ptr %3 to i64
  %5 = and i64 %4, -2
  %6 = inttoptr i64 %5 to ptr
  ret ptr %6
}

; Function Attrs: inlinehint nounwind uwtable
define internal i32 @Gia_ObjIsAnd(ptr noundef %0) #3 {
  %2 = alloca ptr, align 8
  store ptr %0, ptr %2, align 8, !tbaa !47
  %3 = load ptr, ptr %2, align 8, !tbaa !47
  %4 = load i64, ptr %3, align 4
  %5 = lshr i64 %4, 31
  %6 = and i64 %5, 1
  %7 = trunc i64 %6 to i32
  %8 = icmp ne i32 %7, 0
  br i1 %8, label %15, label %9

9:                                                ; preds = %1
  %10 = load ptr, ptr %2, align 8, !tbaa !47
  %11 = load i64, ptr %10, align 4
  %12 = and i64 %11, 536870911
  %13 = trunc i64 %12 to i32
  %14 = icmp ne i32 %13, 536870911
  br label %15

15:                                               ; preds = %9, %1
  %16 = phi i1 [ false, %1 ], [ %14, %9 ]
  %17 = zext i1 %16 to i32
  ret i32 %17
}

; Function Attrs: inlinehint nounwind uwtable
define internal ptr @Gia_ManObj(ptr noundef %0, i32 noundef %1) #3 {
  %3 = alloca ptr, align 8
  %4 = alloca i32, align 4
  store ptr %0, ptr %3, align 8, !tbaa !3
  store i32 %1, ptr %4, align 4, !tbaa !42
  %5 = load ptr, ptr %3, align 8, !tbaa !3
  %6 = getelementptr inbounds nuw %struct.Gia_Man_t_, ptr %5, i32 0, i32 6
  %7 = load ptr, ptr %6, align 8, !tbaa !52
  %8 = load i32, ptr %4, align 4, !tbaa !42
  %9 = sext i32 %8 to i64
  %10 = getelementptr inbounds %struct.Gia_Obj_t_, ptr %7, i64 %9
  ret ptr %10
}

; Function Attrs: nounwind uwtable
define void @Gia_IsoRecognizeMuxes(ptr noundef %0) #0 {
  %2 = alloca ptr, align 8
  %3 = alloca ptr, align 8
  %4 = alloca ptr, align 8
  %5 = alloca ptr, align 8
  %6 = alloca ptr, align 8
  %7 = alloca i32, align 4
  store ptr %0, ptr %2, align 8, !tbaa !3
  call void @llvm.lifetime.start.p0(i64 8, ptr %3) #12
  call void @llvm.lifetime.start.p0(i64 8, ptr %4) #12
  call void @llvm.lifetime.start.p0(i64 8, ptr %5) #12
  call void @llvm.lifetime.start.p0(i64 8, ptr %6) #12
  call void @llvm.lifetime.start.p0(i64 4, ptr %7) #12
  store i32 0, ptr %7, align 4, !tbaa !42
  br label %8

8:                                                ; preds = %85, %1
  %9 = load i32, ptr %7, align 4, !tbaa !42
  %10 = load ptr, ptr %2, align 8, !tbaa !3
  %11 = getelementptr inbounds nuw %struct.Gia_Man_t_, ptr %10, i32 0, i32 4
  %12 = load i32, ptr %11, align 8, !tbaa !25
  %13 = icmp slt i32 %9, %12
  br i1 %13, label %14, label %19

14:                                               ; preds = %8
  %15 = load ptr, ptr %2, align 8, !tbaa !3
  %16 = load i32, ptr %7, align 4, !tbaa !42
  %17 = call ptr @Gia_ManObj(ptr noundef %15, i32 noundef %16)
  store ptr %17, ptr %3, align 8, !tbaa !47
  %18 = icmp ne ptr %17, null
  br label %19

19:                                               ; preds = %14, %8
  %20 = phi i1 [ false, %8 ], [ %18, %14 ]
  br i1 %20, label %21, label %88

21:                                               ; preds = %19
  %22 = load ptr, ptr %3, align 8, !tbaa !47
  %23 = call i32 @Gia_ObjIsAnd(ptr noundef %22)
  %24 = icmp ne i32 %23, 0
  br i1 %24, label %26, label %25

25:                                               ; preds = %21
  br label %84

26:                                               ; preds = %21
  %27 = load ptr, ptr %3, align 8, !tbaa !47
  %28 = call i32 @Gia_ObjIsMuxType(ptr noundef %27)
  %29 = icmp ne i32 %28, 0
  br i1 %29, label %31, label %30

30:                                               ; preds = %26
  br label %85

31:                                               ; preds = %26
  %32 = load ptr, ptr %3, align 8, !tbaa !47
  %33 = call ptr @Gia_ObjRecognizeMux(ptr noundef %32, ptr noundef %5, ptr noundef %6)
  store ptr %33, ptr %4, align 8, !tbaa !47
  %34 = load ptr, ptr %6, align 8, !tbaa !47
  %35 = call ptr @Gia_Regular(ptr noundef %34)
  %36 = load ptr, ptr %5, align 8, !tbaa !47
  %37 = call ptr @Gia_Regular(ptr noundef %36)
  %38 = icmp eq ptr %35, %37
  br i1 %38, label %39, label %58

39:                                               ; preds = %31
  %40 = load i32, ptr getelementptr inbounds ([256 x i32], ptr @s_256Primes, i64 0, i64 233), align 4, !tbaa !42
  %41 = load ptr, ptr %3, align 8, !tbaa !47
  %42 = call ptr @Gia_Regular(ptr noundef %41)
  %43 = getelementptr inbounds nuw %struct.Gia_Obj_t_, ptr %42, i32 0, i32 1
  %44 = load i32, ptr %43, align 4, !tbaa !48
  %45 = add i32 %44, %40
  store i32 %45, ptr %43, align 4, !tbaa !48
  %46 = load i32, ptr getelementptr inbounds ([256 x i32], ptr @s_256Primes, i64 0, i64 234), align 8, !tbaa !42
  %47 = load ptr, ptr %4, align 8, !tbaa !47
  %48 = call ptr @Gia_Regular(ptr noundef %47)
  %49 = getelementptr inbounds nuw %struct.Gia_Obj_t_, ptr %48, i32 0, i32 1
  %50 = load i32, ptr %49, align 4, !tbaa !48
  %51 = add i32 %50, %46
  store i32 %51, ptr %49, align 4, !tbaa !48
  %52 = load i32, ptr getelementptr inbounds ([256 x i32], ptr @s_256Primes, i64 0, i64 234), align 8, !tbaa !42
  %53 = load ptr, ptr %6, align 8, !tbaa !47
  %54 = call ptr @Gia_Regular(ptr noundef %53)
  %55 = getelementptr inbounds nuw %struct.Gia_Obj_t_, ptr %54, i32 0, i32 1
  %56 = load i32, ptr %55, align 4, !tbaa !48
  %57 = add i32 %56, %52
  store i32 %57, ptr %55, align 4, !tbaa !48
  br label %83

58:                                               ; preds = %31
  %59 = load i32, ptr getelementptr inbounds ([256 x i32], ptr @s_256Primes, i64 0, i64 235), align 4, !tbaa !42
  %60 = load ptr, ptr %3, align 8, !tbaa !47
  %61 = call ptr @Gia_Regular(ptr noundef %60)
  %62 = getelementptr inbounds nuw %struct.Gia_Obj_t_, ptr %61, i32 0, i32 1
  %63 = load i32, ptr %62, align 4, !tbaa !48
  %64 = add i32 %63, %59
  store i32 %64, ptr %62, align 4, !tbaa !48
  %65 = load i32, ptr getelementptr inbounds ([256 x i32], ptr @s_256Primes, i64 0, i64 236), align 16, !tbaa !42
  %66 = load ptr, ptr %4, align 8, !tbaa !47
  %67 = call ptr @Gia_Regular(ptr noundef %66)
  %68 = getelementptr inbounds nuw %struct.Gia_Obj_t_, ptr %67, i32 0, i32 1
  %69 = load i32, ptr %68, align 4, !tbaa !48
  %70 = add i32 %69, %65
  store i32 %70, ptr %68, align 4, !tbaa !48
  %71 = load i32, ptr getelementptr inbounds ([256 x i32], ptr @s_256Primes, i64 0, i64 237), align 4, !tbaa !42
  %72 = load ptr, ptr %6, align 8, !tbaa !47
  %73 = call ptr @Gia_Regular(ptr noundef %72)
  %74 = getelementptr inbounds nuw %struct.Gia_Obj_t_, ptr %73, i32 0, i32 1
  %75 = load i32, ptr %74, align 4, !tbaa !48
  %76 = add i32 %75, %71
  store i32 %76, ptr %74, align 4, !tbaa !48
  %77 = load i32, ptr getelementptr inbounds ([256 x i32], ptr @s_256Primes, i64 0, i64 237), align 4, !tbaa !42
  %78 = load ptr, ptr %5, align 8, !tbaa !47
  %79 = call ptr @Gia_Regular(ptr noundef %78)
  %80 = getelementptr inbounds nuw %struct.Gia_Obj_t_, ptr %79, i32 0, i32 1
  %81 = load i32, ptr %80, align 4, !tbaa !48
  %82 = add i32 %81, %77
  store i32 %82, ptr %80, align 4, !tbaa !48
  br label %83

83:                                               ; preds = %58, %39
  br label %84

84:                                               ; preds = %83, %25
  br label %85

85:                                               ; preds = %84, %30
  %86 = load i32, ptr %7, align 4, !tbaa !42
  %87 = add nsw i32 %86, 1
  store i32 %87, ptr %7, align 4, !tbaa !42
  br label %8, !llvm.loop !108

88:                                               ; preds = %19
  call void @llvm.lifetime.end.p0(i64 4, ptr %7) #12
  call void @llvm.lifetime.end.p0(i64 8, ptr %6) #12
  call void @llvm.lifetime.end.p0(i64 8, ptr %5) #12
  call void @llvm.lifetime.end.p0(i64 8, ptr %4) #12
  call void @llvm.lifetime.end.p0(i64 8, ptr %3) #12
  ret void
}