; Function Attrs: nounwind uwtable
define void @Gia_IsoRecognizeMuxes(ptr noundef readonly captures(none) %0) local_unnamed_addr #8 {
  %2 = alloca ptr, align 8
  %3 = alloca ptr, align 8
  call void @llvm.lifetime.start.p0(i64 8, ptr nonnull %2) #26
  call void @llvm.lifetime.start.p0(i64 8, ptr nonnull %3) #26
  %4 = getelementptr i8, ptr %0, i64 32
  %5 = getelementptr inbounds nuw i8, ptr %0, i64 24
  %6 = load i32, ptr %5, align 8, !tbaa !14
  %7 = icmp sgt i32 %6, 0
  br i1 %7, label %.lr.ph, label %.critedge

.lr.ph:                                           ; preds = %1, %55
  %indvars.iv = phi i64 [ %indvars.iv.next, %55 ], [ 0, %1 ]
  %.val = load ptr, ptr %4, align 8, !tbaa !42
  %8 = getelementptr inbounds nuw %struct.Gia_Obj_t_, ptr %.val, i64 %indvars.iv
  %.not = icmp eq ptr %.val, null
  br i1 %.not, label %.critedge, label %9

9:                                                ; preds = %.lr.ph
  %.val14 = load i64, ptr %8, align 4
  %10 = and i64 %.val14, 2147483648
  %.not.i = icmp ne i64 %10, 0
  %11 = and i64 %.val14, 536870911
  %12 = icmp eq i64 %11, 536870911
  %narrow.i.not = or i1 %.not.i, %12
  br i1 %narrow.i.not, label %55, label %13

13:                                               ; preds = %9
  %14 = call i32 @Gia_ObjIsMuxType(ptr noundef nonnull %8) #26
  %.not13 = icmp eq i32 %14, 0
  br i1 %.not13, label %55, label %15

15:                                               ; preds = %13
  %16 = call ptr @Gia_ObjRecognizeMux(ptr noundef nonnull %8, ptr noundef nonnull %2, ptr noundef nonnull %3) #26
  %17 = load ptr, ptr %3, align 8, !tbaa !101
  %18 = ptrtoint ptr %17 to i64
  %19 = and i64 %18, -2
  %20 = inttoptr i64 %19 to ptr
  %21 = load ptr, ptr %2, align 8, !tbaa !101
  %22 = ptrtoint ptr %21 to i64
  %23 = and i64 %22, -2
  %24 = icmp eq i64 %19, %23
  br i1 %24, label %25, label %35

25:                                               ; preds = %15
  %26 = ptrtoint ptr %8 to i64
  %27 = and i64 %26, -2
  %28 = inttoptr i64 %27 to ptr
  %29 = getelementptr inbounds nuw i8, ptr %28, i64 8
  %30 = load i32, ptr %29, align 4, !tbaa !44
  %31 = add i32 %30, 305768917
  store i32 %31, ptr %29, align 4, !tbaa !44
  %32 = ptrtoint ptr %16 to i64
  %33 = and i64 %32, -2
  %34 = inttoptr i64 %33 to ptr
  br label %.sink.split

35:                                               ; preds = %15
  %36 = inttoptr i64 %23 to ptr
  %37 = ptrtoint ptr %8 to i64
  %38 = and i64 %37, -2
  %39 = inttoptr i64 %38 to ptr
  %40 = getelementptr inbounds nuw i8, ptr %39, i64 8
  %41 = load i32, ptr %40, align 4, !tbaa !44
  %42 = add i32 %41, -1354043385
  store i32 %42, ptr %40, align 4, !tbaa !44
  %43 = ptrtoint ptr %16 to i64
  %44 = and i64 %43, -2
  %45 = inttoptr i64 %44 to ptr
  %46 = getelementptr inbounds nuw i8, ptr %45, i64 8
  %47 = load i32, ptr %46, align 4, !tbaa !44
  %48 = add i32 %47, 1142962969
  store i32 %48, ptr %46, align 4, !tbaa !44
  br label %.sink.split

.sink.split:                                      ; preds = %25, %35
  %.sink26 = phi ptr [ %20, %35 ], [ %34, %25 ]
  %.sink25 = phi i32 [ 597285205, %35 ], [ 1731962334, %25 ]
  %.sink22 = phi ptr [ %36, %35 ], [ %20, %25 ]
  %49 = getelementptr inbounds nuw i8, ptr %.sink26, i64 8
  %50 = load i32, ptr %49, align 4, !tbaa !44
  %51 = add i32 %50, %.sink25
  store i32 %51, ptr %49, align 4, !tbaa !44
  %52 = getelementptr inbounds nuw i8, ptr %.sink22, i64 8
  %53 = load i32, ptr %52, align 4, !tbaa !44
  %54 = add i32 %53, %.sink25
  store i32 %54, ptr %52, align 4, !tbaa !44
  br label %55

55:                                               ; preds = %.sink.split, %9, %13
  %indvars.iv.next = add nuw nsw i64 %indvars.iv, 1
  %56 = load i32, ptr %5, align 8, !tbaa !14
  %57 = sext i32 %56 to i64
  %58 = icmp slt i64 %indvars.iv.next, %57
  br i1 %58, label %.lr.ph, label %.critedge, !llvm.loop !102

.critedge:                                        ; preds = %.lr.ph, %55, %1
  call void @llvm.lifetime.end.p0(i64 8, ptr nonnull %3) #26
  call void @llvm.lifetime.end.p0(i64 8, ptr nonnull %2) #26
  ret void
}